target datalayout = "e-m:e-p270:32:32-p271:32:32-p272:64:64-i64:64-i128:128-f80:128-n8:16:32:64-S128"
target triple = "x86_64-unknown-linux-gnu"

%"class.zmq::ws_decoder_t" = type { %"class.zmq::decoder_base_t", [8 x i8], i8, %"class.zmq::msg_t", i8, i64, i8, i64, i32, [4 x i8] }
%"class.zmq::decoder_base_t" = type { %"class.zmq::i_decoder", { i64, i64 }, ptr, i64, %"class.zmq::shared_message_memory_allocator", ptr }
%"class.zmq::i_decoder" = type { ptr }
%"class.zmq::shared_message_memory_allocator" = type { ptr, i64, i64, ptr, i64 }
%"class.zmq::msg_t" = type { %union.anon }
%union.anon = type { %struct.anon }
%struct.anon = type { ptr, [34 x i8], i8, i8, i32, %"union.zmq::msg_t::group_t" }
%"union.zmq::msg_t::group_t" = type { %struct.anon.1 }
%struct.anon.1 = type { i8, ptr }

; Function Attrs: mustprogress nounwind uwtable
define linkonce_odr void @_ZN3zmq14decoder_base_tINS_12ws_decoder_tENS_31shared_message_memory_allocatorEE9next_stepEPvmMS1_FiPKhE(ptr noundef nonnull align 8 dereferenceable(88) %this, ptr noundef %read_pos_, i64 noundef %to_read_, i64 %next_.coerce0, i64 %next_.coerce1) #5 comdat align 2 {
entry:
  %next_ = alloca { i64, i64 }, align 8
  %this.addr = alloca ptr, align 8
  %read_pos_.addr = alloca ptr, align 8
  %to_read_.addr = alloca i64, align 8
  %next_.addr = alloca { i64, i64 }, align 8
  %0 = getelementptr inbounds { i64, i64 }, ptr %next_, i32 0, i32 0
  store i64 %next_.coerce0, ptr %0, align 8
  %1 = getelementptr inbounds { i64, i64 }, ptr %next_, i32 0, i32 1
  store i64 %next_.coerce1, ptr %1, align 8
  %next_1 = load { i64, i64 }, ptr %next_, align 8
  store ptr %this, ptr %this.addr, align 8
  store ptr %read_pos_, ptr %read_pos_.addr, align 8
  store i64 %to_read_, ptr %to_read_.addr, align 8
  store { i64, i64 } %next_1, ptr %next_.addr, align 8
  %this2 = load ptr, ptr %this.addr, align 8
  %2 = load ptr, ptr %read_pos_.addr, align 8
  %_read_pos = getelementptr inbounds %"class.zmq::decoder_base_t", ptr %this2, i32 0, i32 2
  store ptr %2, ptr %_read_pos, align 8
  %3 = load i64, ptr %to_read_.addr, align 8
  %_to_read = getelementptr inbounds %"class.zmq::decoder_base_t", ptr %this2, i32 0, i32 3
  store i64 %3, ptr %_to_read, align 8
  %4 = load { i64, i64 }, ptr %next_.addr, align 8
  %_next = getelementptr inbounds %"class.zmq::decoder_base_t", ptr %this2, i32 0, i32 1
  store { i64, i64 } %4, ptr %_next, align 8
  ret void
}

; Function Attrs: mustprogress uwtable
define noundef i32 @_ZN3zmq12ws_decoder_t12opcode_readyEPKh(ptr noundef nonnull align 8 dereferenceable(208) %this, ptr noundef %0) #0 align 2 {
entry:
  %retval = alloca i32, align 4
  %this.addr = alloca ptr, align 8
  %.addr = alloca ptr, align 8
  %final = alloca i8, align 1
  %coerce = alloca { i64, i64 }, align 8
  store ptr %this, ptr %this.addr, align 8
  store ptr %0, ptr %.addr, align 8
  %this1 = load ptr, ptr %this.addr, align 8
  %_tmpbuf = getelementptr inbounds %"class.zmq::ws_decoder_t", ptr %this1, i32 0, i32 1
  %arrayidx = getelementptr inbounds [8 x i8], ptr %_tmpbuf, i64 0, i64 0
  %1 = load i8, ptr %arrayidx, align 8
  %conv = zext i8 %1 to i32
  %and = and i32 %conv, 128
  %cmp = icmp ne i32 %and, 0
  %frombool = zext i1 %cmp to i8
  store i8 %frombool, ptr %final, align 1
  %2 = load i8, ptr %final, align 1
  %tobool = trunc i8 %2 to i1
  br i1 %tobool, label %if.end, label %if.then

if.then:                                          ; preds = %entry
  store i32 -1, ptr %retval, align 4
  br label %return

if.end:                                           ; preds = %entry
  %_tmpbuf2 = getelementptr inbounds %"class.zmq::ws_decoder_t", ptr %this1, i32 0, i32 1
  %arrayidx3 = getelementptr inbounds [8 x i8], ptr %_tmpbuf2, i64 0, i64 0
  %3 = load i8, ptr %arrayidx3, align 8
  %conv4 = zext i8 %3 to i32
  %and5 = and i32 %conv4, 15
  %_opcode = getelementptr inbounds %"class.zmq::ws_decoder_t", ptr %this1, i32 0, i32 8
  store i32 %and5, ptr %_opcode, align 8
  %_msg_flags = getelementptr inbounds %"class.zmq::ws_decoder_t", ptr %this1, i32 0, i32 2
  store i8 0, ptr %_msg_flags, align 8
  %_opcode6 = getelementptr inbounds %"class.zmq::ws_decoder_t", ptr %this1, i32 0, i32 8
  %4 = load i32, ptr %_opcode6, align 8
  switch i32 %4, label %sw.default [
    i32 2, label %sw.bb
    i32 8, label %sw.bb7
    i32 9, label %sw.bb9
    i32 10, label %sw.bb11
  ]

sw.bb:                                            ; preds = %if.end
  br label %sw.epilog

sw.bb7:                                           ; preds = %if.end
  %_msg_flags8 = getelementptr inbounds %"class.zmq::ws_decoder_t", ptr %this1, i32 0, i32 2
  store i8 22, ptr %_msg_flags8, align 8
  br label %sw.epilog

sw.bb9:                                           ; preds = %if.end
  %_msg_flags10 = getelementptr inbounds %"class.zmq::ws_decoder_t", ptr %this1, i32 0, i32 2
  store i8 6, ptr %_msg_flags10, align 8
  br label %sw.epilog

sw.bb11:                                          ; preds = %if.end
  %_msg_flags12 = getelementptr inbounds %"class.zmq::ws_decoder_t", ptr %this1, i32 0, i32 2
  store i8 10, ptr %_msg_flags12, align 8
  br label %sw.epilog

sw.default:                                       ; preds = %if.end
  store i32 -1, ptr %retval, align 4
  br label %return

sw.epilog:                                        ; preds = %sw.bb11, %sw.bb9, %sw.bb7, %sw.bb
  %_tmpbuf13 = getelementptr inbounds %"class.zmq::ws_decoder_t", ptr %this1, i32 0, i32 1
  %arraydecay = getelementptr inbounds [8 x i8], ptr %_tmpbuf13, i64 0, i64 0
  store { i64, i64 } { i64 ptrtoint (ptr @_ZN3zmq12ws_decoder_t21size_first_byte_readyEPKh to i64), i64 0 }, ptr %coerce, align 8
  %5 = getelementptr inbounds { i64, i64 }, ptr %coerce, i32 0, i32 0
  %6 = load i64, ptr %5, align 8
  %7 = getelementptr inbounds { i64, i64 }, ptr %coerce, i32 0, i32 1
  %8 = load i64, ptr %7, align 8
  call void @_ZN3zmq14decoder_base_tINS_12ws_decoder_tENS_31shared_message_memory_allocatorEE9next_stepEPvmMS1_FiPKhE(ptr noundef nonnull align 8 dereferenceable(88) %this1, ptr noundef %arraydecay, i64 noundef 1, i64 %6, i64 %8)
  store i32 0, ptr %retval, align 4
  br label %return

return:                                           ; preds = %sw.epilog, %sw.default, %if.then
  %9 = load i32, ptr %retval, align 4
  ret i32 %9
}