; Function Attrs: mustprogress nofree norecurse nosync nounwind willreturn memory(argmem: readwrite) uwtable
define noundef i32 @_ZN3zmq12ws_decoder_t12opcode_readyEPKh(ptr noundef nonnull align 8 dereferenceable(208) %this, ptr nocapture readnone %0) #6 align 2 {
entry:
  %_tmpbuf = getelementptr inbounds i8, ptr %this, i64 88
  %1 = load i8, ptr %_tmpbuf, align 8
  %cmp.not = icmp sgt i8 %1, -1
  br i1 %cmp.not, label %return, label %if.end

if.end:                                           ; preds = %entry
  %2 = and i8 %1, 15
  %and5 = zext nneg i8 %2 to i32
  %_opcode = getelementptr inbounds i8, ptr %this, i64 200
  store i32 %and5, ptr %_opcode, align 8
  %_msg_flags = getelementptr inbounds i8, ptr %this, i64 96
  store i8 0, ptr %_msg_flags, align 8
  switch i8 %2, label %return [
    i8 2, label %sw.epilog
    i8 8, label %sw.epilog.sink.split
    i8 9, label %sw.bb9
    i8 10, label %sw.bb11
  ]

sw.bb9:                                           ; preds = %if.end
  br label %sw.epilog.sink.split

sw.bb11:                                          ; preds = %if.end
  br label %sw.epilog.sink.split

sw.epilog.sink.split:                             ; preds = %if.end, %sw.bb9, %sw.bb11
  %.sink = phi i8 [ 10, %sw.bb11 ], [ 6, %sw.bb9 ], [ 22, %if.end ]
  store i8 %.sink, ptr %_msg_flags, align 8
  br label %sw.epilog

sw.epilog:                                        ; preds = %sw.epilog.sink.split, %if.end
  %_read_pos.i = getelementptr inbounds i8, ptr %this, i64 24
  store ptr %_tmpbuf, ptr %_read_pos.i, align 8
  %_to_read.i = getelementptr inbounds i8, ptr %this, i64 32
  store i64 1, ptr %_to_read.i, align 8
  %_next.i = getelementptr inbounds i8, ptr %this, i64 8
  store i64 ptrtoint (ptr @_ZN3zmq12ws_decoder_t21size_first_byte_readyEPKh to i64), ptr %_next.i, align 8
  %_next.repack1.i = getelementptr inbounds i8, ptr %this, i64 16
  store i64 0, ptr %_next.repack1.i, align 8
  br label %return

return:                                           ; preds = %if.end, %entry, %sw.epilog
  %retval.0 = phi i32 [ 0, %sw.epilog ], [ -1, %entry ], [ -1, %if.end ]
  ret i32 %retval.0
}